(lp1
(dp2
S'finObjType'
p3
S'resources'
p4
sS'drawTrend'
p5
I00
sS'step'
p6
Vdaily
p7
sS'chartType'
p8
Vline
p9
sS'index'
p10
I0
sS'indicator'
p11
(lp12
sS'scale'
p13
S'linear'
p14
sS'end'
p15
cdatetime
datetime
p16
(S'\x07\xe1\t\x07\x00\x00\x00\x00\x00\x00'
tRp17
sS'hideVolumen'
p18
I00
sS'oscilator'
p19
S''
sS'start'
p20
g16
(S'\x07\xe1\x08\x19\x00\x00\x00\x00\x00\x00'
tRp21
sS'lineWidth'
p22
F1
sS'painting'
p23
I00
sa.